target datalayout = "e-m:e-p270:32:32-p271:32:32-p272:64:64-i64:64-i128:128-f80:128-n8:16:32:64-S128"
target triple = "x86_64-pc-linux-gnu"

%struct.TParser = type { ptr, i32, ptr, ptr, i8, i32, ptr, i8, i8, i8, ptr, i32, i32, i32 }
%struct.TParserPosition = type { i32, i32, i32, i32, i32, i32, ptr, ptr }
%struct.FunctionCallInfoBaseData = type { ptr, ptr, ptr, i32, i8, i16, [0 x %struct.NullableDatum] }
%struct.NullableDatum = type { i64, i8 }

@database_ctype_is_c = external global i8, align 1

; Function Attrs: nounwind uwtable
define internal ptr @newTParserPosition(ptr noundef %0) #0 {
  %2 = alloca ptr, align 8
  %3 = alloca ptr, align 8
  store ptr %0, ptr %2, align 8
  call void @llvm.lifetime.start.p0(i64 8, ptr %3) #11
  %4 = call ptr @palloc(i64 noundef 40)
  store ptr %4, ptr %3, align 8
  %5 = load ptr, ptr %2, align 8
  %6 = icmp ne ptr %5, null
  br i1 %6, label %7, label %10

7:                                                ; preds = %1
  %8 = load ptr, ptr %3, align 8
  %9 = load ptr, ptr %2, align 8
  call void @llvm.memcpy.p0.p0.i64(ptr align 8 %8, ptr align 8 %9, i64 40, i1 false)
  br label %12

10:                                               ; preds = %1
  %11 = load ptr, ptr %3, align 8
  call void @llvm.memset.p0.i64(ptr align 8 %11, i8 0, i64 40, i1 false)
  br label %12

12:                                               ; preds = %10, %7
  %13 = load ptr, ptr %2, align 8
  %14 = load ptr, ptr %3, align 8
  %15 = getelementptr inbounds nuw %struct.TParserPosition, ptr %14, i32 0, i32 6
  store ptr %13, ptr %15, align 8
  %16 = load ptr, ptr %3, align 8
  %17 = getelementptr inbounds nuw %struct.TParserPosition, ptr %16, i32 0, i32 7
  store ptr null, ptr %17, align 8
  %18 = load ptr, ptr %3, align 8
  call void @llvm.lifetime.end.p0(i64 8, ptr %3) #11
  ret ptr %18
}

; Function Attrs: inlinehint nounwind uwtable
define internal i64 @PointerGetDatum(ptr noundef %0) #3 {
  %2 = alloca ptr, align 8
  store ptr %0, ptr %2, align 8
  %3 = load ptr, ptr %2, align 8
  %4 = ptrtoint ptr %3 to i64
  ret i64 %4
}

; Function Attrs: nounwind uwtable
define internal ptr @TParserInit(ptr noundef %0, i32 noundef %1) #0 {
  %3 = alloca ptr, align 8
  %4 = alloca i32, align 4
  %5 = alloca ptr, align 8
  %6 = alloca ptr, align 8
  store ptr %0, ptr %3, align 8
  store i32 %1, ptr %4, align 4
  call void @llvm.lifetime.start.p0(i64 8, ptr %5) #11
  %7 = call ptr @palloc0(i64 noundef 80)
  store ptr %7, ptr %5, align 8
  %8 = call i32 @pg_database_encoding_max_length()
  %9 = load ptr, ptr %5, align 8
  %10 = getelementptr inbounds nuw %struct.TParser, ptr %9, i32 0, i32 5
  store i32 %8, ptr %10, align 4
  %11 = load ptr, ptr %3, align 8
  %12 = load ptr, ptr %5, align 8
  %13 = getelementptr inbounds nuw %struct.TParser, ptr %12, i32 0, i32 0
  store ptr %11, ptr %13, align 8
  %14 = load i32, ptr %4, align 4
  %15 = load ptr, ptr %5, align 8
  %16 = getelementptr inbounds nuw %struct.TParser, ptr %15, i32 0, i32 1
  store i32 %14, ptr %16, align 8
  %17 = load ptr, ptr %5, align 8
  %18 = getelementptr inbounds nuw %struct.TParser, ptr %17, i32 0, i32 5
  %19 = load i32, ptr %18, align 4
  %20 = icmp sgt i32 %19, 1
  br i1 %20, label %21, label %74

21:                                               ; preds = %2
  call void @llvm.lifetime.start.p0(i64 8, ptr %6) #11
  store ptr null, ptr %6, align 8
  %22 = load ptr, ptr %5, align 8
  %23 = getelementptr inbounds nuw %struct.TParser, ptr %22, i32 0, i32 4
  store i8 1, ptr %23, align 8
  %24 = load i8, ptr @database_ctype_is_c, align 1, !range !4, !noundef !5
  %25 = trunc i8 %24 to i1
  br i1 %25, label %26, label %46

26:                                               ; preds = %21
  %27 = load ptr, ptr %5, align 8
  %28 = getelementptr inbounds nuw %struct.TParser, ptr %27, i32 0, i32 1
  %29 = load i32, ptr %28, align 8
  %30 = add i32 %29, 1
  %31 = sext i32 %30 to i64
  %32 = mul i64 4, %31
  %33 = call ptr @palloc(i64 noundef %32)
  %34 = load ptr, ptr %5, align 8
  %35 = getelementptr inbounds nuw %struct.TParser, ptr %34, i32 0, i32 3
  store ptr %33, ptr %35, align 8
  %36 = load ptr, ptr %5, align 8
  %37 = getelementptr inbounds nuw %struct.TParser, ptr %36, i32 0, i32 0
  %38 = load ptr, ptr %37, align 8
  %39 = load ptr, ptr %5, align 8
  %40 = getelementptr inbounds nuw %struct.TParser, ptr %39, i32 0, i32 3
  %41 = load ptr, ptr %40, align 8
  %42 = load ptr, ptr %5, align 8
  %43 = getelementptr inbounds nuw %struct.TParser, ptr %42, i32 0, i32 1
  %44 = load i32, ptr %43, align 8
  %45 = call i32 @pg_mb2wchar_with_len(ptr noundef %38, ptr noundef %41, i32 noundef %44)
  br label %73

46:                                               ; preds = %21
  %47 = load ptr, ptr %5, align 8
  %48 = getelementptr inbounds nuw %struct.TParser, ptr %47, i32 0, i32 1
  %49 = load i32, ptr %48, align 8
  %50 = add i32 %49, 1
  %51 = sext i32 %50 to i64
  %52 = mul i64 4, %51
  %53 = call ptr @palloc(i64 noundef %52)
  %54 = load ptr, ptr %5, align 8
  %55 = getelementptr inbounds nuw %struct.TParser, ptr %54, i32 0, i32 2
  store ptr %53, ptr %55, align 8
  %56 = load ptr, ptr %5, align 8
  %57 = getelementptr inbounds nuw %struct.TParser, ptr %56, i32 0, i32 2
  %58 = load ptr, ptr %57, align 8
  %59 = load ptr, ptr %5, align 8
  %60 = getelementptr inbounds nuw %struct.TParser, ptr %59, i32 0, i32 1
  %61 = load i32, ptr %60, align 8
  %62 = add i32 %61, 1
  %63 = sext i32 %62 to i64
  %64 = load ptr, ptr %5, align 8
  %65 = getelementptr inbounds nuw %struct.TParser, ptr %64, i32 0, i32 0
  %66 = load ptr, ptr %65, align 8
  %67 = load ptr, ptr %5, align 8
  %68 = getelementptr inbounds nuw %struct.TParser, ptr %67, i32 0, i32 1
  %69 = load i32, ptr %68, align 8
  %70 = sext i32 %69 to i64
  %71 = load ptr, ptr %6, align 8
  %72 = call i64 @char2wchar(ptr noundef %58, i64 noundef %63, ptr noundef %66, i64 noundef %70, ptr noundef %71)
  br label %73

73:                                               ; preds = %46, %26
  call void @llvm.lifetime.end.p0(i64 8, ptr %6) #11
  br label %77

74:                                               ; preds = %2
  %75 = load ptr, ptr %5, align 8
  %76 = getelementptr inbounds nuw %struct.TParser, ptr %75, i32 0, i32 4
  store i8 0, ptr %76, align 8
  br label %77

77:                                               ; preds = %74, %73
  %78 = call ptr @newTParserPosition(ptr noundef null)
  %79 = load ptr, ptr %5, align 8
  %80 = getelementptr inbounds nuw %struct.TParser, ptr %79, i32 0, i32 6
  store ptr %78, ptr %80, align 8
  %81 = load ptr, ptr %5, align 8
  %82 = getelementptr inbounds nuw %struct.TParser, ptr %81, i32 0, i32 6
  %83 = load ptr, ptr %82, align 8
  %84 = getelementptr inbounds nuw %struct.TParserPosition, ptr %83, i32 0, i32 5
  store i32 0, ptr %84, align 4
  %85 = load ptr, ptr %5, align 8
  call void @llvm.lifetime.end.p0(i64 8, ptr %5) #11
  ret ptr %85
}

; Function Attrs: inlinehint nounwind uwtable
define internal i32 @DatumGetInt32(i64 noundef %0) #3 {
  %2 = alloca i64, align 8
  store i64 %0, ptr %2, align 8
  %3 = load i64, ptr %2, align 8
  %4 = trunc i64 %3 to i32
  ret i32 %4
}

; Function Attrs: inlinehint nounwind uwtable
define internal ptr @DatumGetPointer(i64 noundef %0) #3 {
  %2 = alloca i64, align 8
  store i64 %0, ptr %2, align 8
  %3 = load i64, ptr %2, align 8
  %4 = inttoptr i64 %3 to ptr
  ret ptr %4
}

; Function Attrs: nounwind uwtable
define dso_local i64 @prsd_start(ptr noundef %0) #0 {
  %2 = alloca ptr, align 8
  store ptr %0, ptr %2, align 8
  %3 = load ptr, ptr %2, align 8
  %4 = getelementptr inbounds nuw %struct.FunctionCallInfoBaseData, ptr %3, i32 0, i32 6
  %5 = getelementptr inbounds [0 x %struct.NullableDatum], ptr %4, i64 0, i64 0
  %6 = getelementptr inbounds nuw %struct.NullableDatum, ptr %5, i32 0, i32 0
  %7 = load i64, ptr %6, align 8
  %8 = call ptr @DatumGetPointer(i64 noundef %7)
  %9 = load ptr, ptr %2, align 8
  %10 = getelementptr inbounds nuw %struct.FunctionCallInfoBaseData, ptr %9, i32 0, i32 6
  %11 = getelementptr inbounds [0 x %struct.NullableDatum], ptr %10, i64 0, i64 1
  %12 = getelementptr inbounds nuw %struct.NullableDatum, ptr %11, i32 0, i32 0
  %13 = load i64, ptr %12, align 8
  %14 = call i32 @DatumGetInt32(i64 noundef %13)
  %15 = call ptr @TParserInit(ptr noundef %8, i32 noundef %14)
  %16 = call i64 @PointerGetDatum(ptr noundef %15)
  ret i64 %16
}