; Function Attrs: nounwind uwtable
define dso_local i64 @prsd_start(ptr noundef readonly captures(none) %0) local_unnamed_addr #0 {
  %2 = getelementptr inbounds nuw i8, ptr %0, i64 32
  %3 = load i64, ptr %2, align 8
  %4 = inttoptr i64 %3 to ptr
  %5 = getelementptr inbounds nuw i8, ptr %0, i64 48
  %6 = load i64, ptr %5, align 8
  %7 = trunc i64 %6 to i32
  %8 = tail call ptr @palloc0(i64 noundef 80) #16
  %9 = tail call i32 @pg_database_encoding_max_length() #16
  %10 = getelementptr inbounds nuw i8, ptr %8, i64 36
  store i32 %9, ptr %10, align 4
  store ptr %4, ptr %8, align 8
  %11 = getelementptr inbounds nuw i8, ptr %8, i64 8
  store i32 %7, ptr %11, align 8
  %12 = icmp sgt i32 %9, 1
  %13 = getelementptr inbounds nuw i8, ptr %8, i64 32
  br i1 %12, label %14, label %33

14:                                               ; preds = %1
  store i8 1, ptr %13, align 8
  %15 = load i8, ptr @database_ctype_is_c, align 1, !range !4, !noundef !5
  %16 = trunc nuw i8 %15 to i1
  %17 = shl i64 %6, 32
  %sext = add i64 %17, 4294967296
  %18 = ashr exact i64 %sext, 30
  %19 = tail call ptr @palloc(i64 noundef %18) #16
  br i1 %16, label %20, label %25

20:                                               ; preds = %14
  %21 = getelementptr inbounds nuw i8, ptr %8, i64 24
  store ptr %19, ptr %21, align 8
  %22 = load ptr, ptr %8, align 8
  %23 = load i32, ptr %11, align 8
  %24 = tail call i32 @pg_mb2wchar_with_len(ptr noundef %22, ptr noundef %19, i32 noundef %23) #16
  br label %TParserInit.exit

25:                                               ; preds = %14
  %26 = getelementptr inbounds nuw i8, ptr %8, i64 16
  store ptr %19, ptr %26, align 8
  %27 = load i32, ptr %11, align 8
  %28 = add i32 %27, 1
  %29 = sext i32 %28 to i64
  %30 = load ptr, ptr %8, align 8
  %31 = sext i32 %27 to i64
  %32 = tail call i64 @char2wchar(ptr noundef %19, i64 noundef %29, ptr noundef %30, i64 noundef %31, ptr noundef null) #16
  br label %TParserInit.exit

33:                                               ; preds = %1
  store i8 0, ptr %13, align 8
  br label %TParserInit.exit

TParserInit.exit:                                 ; preds = %20, %25, %33
  %34 = tail call ptr @palloc(i64 noundef 40) #16
  %35 = getelementptr inbounds nuw i8, ptr %8, i64 40
  tail call void @llvm.memset.p0.i64(ptr noundef nonnull align 8 dereferenceable(40) %34, i8 0, i64 40, i1 false)
  store ptr %34, ptr %35, align 8
  %36 = getelementptr inbounds nuw i8, ptr %34, i64 20
  store i32 0, ptr %36, align 4
  %37 = ptrtoint ptr %8 to i64
  ret i64 %37
}